; Function Attrs: null_pointer_is_valid sspstrong uwtable
define internal fastcc void @dissect_ptp_v2_text(ptr noundef %0, ptr noundef captures(none) %1, ptr noundef %2, i32 noundef %3, i32 noundef %4) unnamed_addr #1 {
  %6 = load i32, ptr %1, align 4
  %7 = tail call zeroext i8 @tvb_get_uint8(ptr noundef %0, i32 noundef %6)
  %.not = icmp eq ptr %2, null
  br i1 %.not, label %23, label %8

8:                                                ; preds = %5
  %9 = load i32, ptr %1, align 4
  %10 = add i32 %9, 1
  %11 = zext i8 %7 to i32
  %12 = tail call ptr @proto_tree_add_item(ptr noundef nonnull %2, i32 noundef %3, ptr noundef %0, i32 noundef %10, i32 noundef %11, i32 noundef 0)
  %13 = load i32, ptr @ett_ptp_v2_ptptext, align 4
  %14 = tail call ptr @proto_item_add_subtree(ptr noundef %12, i32 noundef %13)
  %15 = load i32, ptr %1, align 4
  %16 = tail call ptr @proto_tree_add_item(ptr noundef %14, i32 noundef %4, ptr noundef %0, i32 noundef %15, i32 noundef 1, i32 noundef 0)
  %17 = load i32, ptr %1, align 4
  %18 = add i32 %17, 1
  %19 = tail call ptr @proto_tree_add_item(ptr noundef %14, i32 noundef %3, ptr noundef %0, i32 noundef %18, i32 noundef %11, i32 noundef 0)
  %20 = load i32, ptr %1, align 4
  %21 = add nuw nsw i32 %11, 1
  %22 = add i32 %21, %20
  store i32 %22, ptr %1, align 4
  br label %23

23:                                               ; preds = %8, %5
  ret void
}